target datalayout = "e-m:e-p270:32:32-p271:32:32-p272:64:64-i64:64-i128:128-f80:128-n8:16:32:64-S128"
target triple = "x86_64-pc-linux-gnu"

%"class.std::__cxx11::basic_string" = type { %"struct.std::__cxx11::basic_string<char>::_Alloc_hider", i64, %union.anon }
%"struct.std::__cxx11::basic_string<char>::_Alloc_hider" = type { ptr }
%union.anon = type { i64, [8 x i8] }
%"class.open_spiel::othello::Move" = type { i32, i32 }
%"class.absl::debian2::AlphaNum" = type { %"class.absl::debian2::string_view", [32 x i8] }
%"class.absl::debian2::string_view" = type { ptr, i64 }
%class.anon = type { i8 }

@.str.5 = private unnamed_addr constant [30 x i8] c"Found unmatched case in Next.\00", align 1

; Function Attrs: mustprogress nounwind uwtable
define linkonce_odr void @_ZZN4absl7debian211string_view19CheckLengthInternalEmENKUlvE_clEv(ptr noundef nonnull align 1 dereferenceable(1) %0) #6 comdat align 2 {
  %2 = alloca ptr, align 8
  store ptr %0, ptr %2, align 8
  br label %3

3:                                                ; preds = %1
  call void @llvm.trap()
  unreachable

4:                                                ; No predecessors!
  ret void
}

; Function Attrs: mustprogress uwtable
define linkonce_odr noundef i64 @_ZN4absl7debian211string_view19CheckLengthInternalEm(i64 noundef %0) #4 comdat align 2 {
  %2 = alloca i64, align 8
  %3 = alloca %class.anon, align 1
  store i64 %0, ptr %2, align 8
  %4 = load i64, ptr %2, align 8
  %5 = icmp ule i64 %4, 9223372036854775807
  br i1 %5, label %6, label %7

6:                                                ; preds = %1
  br label %8

7:                                                ; preds = %1
  call void @_ZZN4absl7debian211string_view19CheckLengthInternalEmENKUlvE_clEv(ptr noundef nonnull align 1 dereferenceable(1) %3)
  br label %8

8:                                                ; preds = %7, %6
  %9 = load i64, ptr %2, align 8
  ret i64 %9
}

; Function Attrs: mustprogress nounwind uwtable
define linkonce_odr noundef i64 @_ZN4absl7debian211string_view14StrlenInternalEPKc(ptr noundef %0) #6 comdat align 2 {
  %2 = alloca ptr, align 8
  store ptr %0, ptr %2, align 8
  %3 = load ptr, ptr %2, align 8
  %4 = call i64 @strlen(ptr noundef %3) #3
  ret i64 %4
}

; Function Attrs: mustprogress uwtable
define linkonce_odr void @_ZN4absl7debian211string_viewC2EPKc(ptr noundef nonnull align 8 dereferenceable(16) %0, ptr noundef %1) unnamed_addr #4 comdat align 2 {
  %3 = alloca ptr, align 8
  %4 = alloca ptr, align 8
  store ptr %0, ptr %3, align 8
  store ptr %1, ptr %4, align 8
  %5 = load ptr, ptr %3, align 8
  %6 = getelementptr inbounds nuw %"class.absl::debian2::string_view", ptr %5, i32 0, i32 0
  %7 = load ptr, ptr %4, align 8
  store ptr %7, ptr %6, align 8
  %8 = getelementptr inbounds nuw %"class.absl::debian2::string_view", ptr %5, i32 0, i32 1
  %9 = load ptr, ptr %4, align 8
  %10 = icmp ne ptr %9, null
  br i1 %10, label %11, label %15

11:                                               ; preds = %2
  %12 = load ptr, ptr %4, align 8
  %13 = call noundef i64 @_ZN4absl7debian211string_view14StrlenInternalEPKc(ptr noundef %12)
  %14 = call noundef i64 @_ZN4absl7debian211string_view19CheckLengthInternalEm(i64 noundef %13)
  br label %16

15:                                               ; preds = %2
  br label %16

16:                                               ; preds = %15, %11
  %17 = phi i64 [ %14, %11 ], [ 0, %15 ]
  store i64 %17, ptr %8, align 8
  ret void
}

; Function Attrs: mustprogress uwtable
define linkonce_odr void @_ZN4absl7debian28AlphaNumC2EPKc(ptr noundef nonnull align 8 dereferenceable(48) %0, ptr noundef %1) unnamed_addr #4 comdat align 2 {
  %3 = alloca ptr, align 8
  %4 = alloca ptr, align 8
  store ptr %0, ptr %3, align 8
  store ptr %1, ptr %4, align 8
  %5 = load ptr, ptr %3, align 8
  %6 = getelementptr inbounds nuw %"class.absl::debian2::AlphaNum", ptr %5, i32 0, i32 0
  %7 = load ptr, ptr %4, align 8
  call void @_ZN4absl7debian211string_viewC2EPKc(ptr noundef nonnull align 8 dereferenceable(16) %6, ptr noundef %7)
  ret void
}

; Function Attrs: mustprogress nounwind uwtable
define linkonce_odr void @_ZN10open_spiel7othello4MoveC2Eii(ptr noundef nonnull align 4 dereferenceable(8) %0, i32 noundef %1, i32 noundef %2) unnamed_addr #6 comdat align 2 {
  %4 = alloca ptr, align 8
  %5 = alloca i32, align 4
  %6 = alloca i32, align 4
  store ptr %0, ptr %4, align 8
  store i32 %1, ptr %5, align 4
  store i32 %2, ptr %6, align 4
  %7 = load ptr, ptr %4, align 8
  %8 = getelementptr inbounds nuw %"class.open_spiel::othello::Move", ptr %7, i32 0, i32 0
  %9 = load i32, ptr %5, align 4
  store i32 %9, ptr %8, align 4
  %10 = getelementptr inbounds nuw %"class.open_spiel::othello::Move", ptr %7, i32 0, i32 1
  %11 = load i32, ptr %6, align 4
  store i32 %11, ptr %10, align 4
  ret void
}

; Function Attrs: mustprogress uwtable
define i64 @_ZNK10open_spiel7othello4Move4NextENS0_9DirectionE(ptr noundef nonnull align 4 dereferenceable(8) %0, i32 noundef %1) #4 align 2 personality ptr @__gxx_personality_v0 {
  %3 = alloca %"class.open_spiel::othello::Move", align 4
  %4 = alloca ptr, align 8
  %5 = alloca i32, align 4
  %6 = alloca %"class.std::__cxx11::basic_string", align 8
  %7 = alloca %"class.absl::debian2::AlphaNum", align 8
  %8 = alloca ptr, align 8
  %9 = alloca i32, align 4
  store ptr %0, ptr %4, align 8
  store i32 %1, ptr %5, align 4
  %10 = load ptr, ptr %4, align 8
  %11 = load i32, ptr %5, align 4
  switch i32 %11, label %64 [
    i32 0, label %12
    i32 1, label %18
    i32 2, label %24
    i32 3, label %30
    i32 5, label %36
    i32 4, label %43
    i32 7, label %50
    i32 6, label %57
  ]

12:                                               ; preds = %2
  %13 = getelementptr inbounds nuw %"class.open_spiel::othello::Move", ptr %10, i32 0, i32 0
  %14 = load i32, ptr %13, align 4
  %15 = sub nsw i32 %14, 1
  %16 = getelementptr inbounds nuw %"class.open_spiel::othello::Move", ptr %10, i32 0, i32 1
  %17 = load i32, ptr %16, align 4
  call void @_ZN10open_spiel7othello4MoveC2Eii(ptr noundef nonnull align 4 dereferenceable(8) %3, i32 noundef %15, i32 noundef %17)
  br label %70

18:                                               ; preds = %2
  %19 = getelementptr inbounds nuw %"class.open_spiel::othello::Move", ptr %10, i32 0, i32 0
  %20 = load i32, ptr %19, align 4
  %21 = add nsw i32 %20, 1
  %22 = getelementptr inbounds nuw %"class.open_spiel::othello::Move", ptr %10, i32 0, i32 1
  %23 = load i32, ptr %22, align 4
  call void @_ZN10open_spiel7othello4MoveC2Eii(ptr noundef nonnull align 4 dereferenceable(8) %3, i32 noundef %21, i32 noundef %23)
  br label %70

24:                                               ; preds = %2
  %25 = getelementptr inbounds nuw %"class.open_spiel::othello::Move", ptr %10, i32 0, i32 0
  %26 = load i32, ptr %25, align 4
  %27 = getelementptr inbounds nuw %"class.open_spiel::othello::Move", ptr %10, i32 0, i32 1
  %28 = load i32, ptr %27, align 4
  %29 = sub nsw i32 %28, 1
  call void @_ZN10open_spiel7othello4MoveC2Eii(ptr noundef nonnull align 4 dereferenceable(8) %3, i32 noundef %26, i32 noundef %29)
  br label %70

30:                                               ; preds = %2
  %31 = getelementptr inbounds nuw %"class.open_spiel::othello::Move", ptr %10, i32 0, i32 0
  %32 = load i32, ptr %31, align 4
  %33 = getelementptr inbounds nuw %"class.open_spiel::othello::Move", ptr %10, i32 0, i32 1
  %34 = load i32, ptr %33, align 4
  %35 = add nsw i32 %34, 1
  call void @_ZN10open_spiel7othello4MoveC2Eii(ptr noundef nonnull align 4 dereferenceable(8) %3, i32 noundef %32, i32 noundef %35)
  br label %70

36:                                               ; preds = %2
  %37 = getelementptr inbounds nuw %"class.open_spiel::othello::Move", ptr %10, i32 0, i32 0
  %38 = load i32, ptr %37, align 4
  %39 = sub nsw i32 %38, 1
  %40 = getelementptr inbounds nuw %"class.open_spiel::othello::Move", ptr %10, i32 0, i32 1
  %41 = load i32, ptr %40, align 4
  %42 = add nsw i32 %41, 1
  call void @_ZN10open_spiel7othello4MoveC2Eii(ptr noundef nonnull align 4 dereferenceable(8) %3, i32 noundef %39, i32 noundef %42)
  br label %70

43:                                               ; preds = %2
  %44 = getelementptr inbounds nuw %"class.open_spiel::othello::Move", ptr %10, i32 0, i32 0
  %45 = load i32, ptr %44, align 4
  %46 = sub nsw i32 %45, 1
  %47 = getelementptr inbounds nuw %"class.open_spiel::othello::Move", ptr %10, i32 0, i32 1
  %48 = load i32, ptr %47, align 4
  %49 = sub nsw i32 %48, 1
  call void @_ZN10open_spiel7othello4MoveC2Eii(ptr noundef nonnull align 4 dereferenceable(8) %3, i32 noundef %46, i32 noundef %49)
  br label %70

50:                                               ; preds = %2
  %51 = getelementptr inbounds nuw %"class.open_spiel::othello::Move", ptr %10, i32 0, i32 0
  %52 = load i32, ptr %51, align 4
  %53 = add nsw i32 %52, 1
  %54 = getelementptr inbounds nuw %"class.open_spiel::othello::Move", ptr %10, i32 0, i32 1
  %55 = load i32, ptr %54, align 4
  %56 = add nsw i32 %55, 1
  call void @_ZN10open_spiel7othello4MoveC2Eii(ptr noundef nonnull align 4 dereferenceable(8) %3, i32 noundef %53, i32 noundef %56)
  br label %70

57:                                               ; preds = %2
  %58 = getelementptr inbounds nuw %"class.open_spiel::othello::Move", ptr %10, i32 0, i32 0
  %59 = load i32, ptr %58, align 4
  %60 = add nsw i32 %59, 1
  %61 = getelementptr inbounds nuw %"class.open_spiel::othello::Move", ptr %10, i32 0, i32 1
  %62 = load i32, ptr %61, align 4
  %63 = sub nsw i32 %62, 1
  call void @_ZN10open_spiel7othello4MoveC2Eii(ptr noundef nonnull align 4 dereferenceable(8) %3, i32 noundef %60, i32 noundef %63)
  br label %70

64:                                               ; preds = %2
  call void @_ZN4absl7debian28AlphaNumC2EPKc(ptr noundef nonnull align 8 dereferenceable(48) %7, ptr noundef @.str.5)
  call void @_ZN4absl7debian26StrCatB5cxx11ERKNS0_8AlphaNumE(ptr dead_on_unwind writable sret(%"class.std::__cxx11::basic_string") align 8 %6, ptr noundef nonnull align 8 dereferenceable(48) %7)
  invoke void @_ZN10open_spiel15SpielFatalErrorERKNSt7__cxx1112basic_stringIcSt11char_traitsIcESaIcEEE(ptr noundef nonnull align 8 dereferenceable(32) %6) #15
          to label %65 unwind label %66

65:                                               ; preds = %64
  unreachable

66:                                               ; preds = %64
  %67 = landingpad { ptr, i32 }
          cleanup
  %68 = extractvalue { ptr, i32 } %67, 0
  store ptr %68, ptr %8, align 8
  %69 = extractvalue { ptr, i32 } %67, 1
  store i32 %69, ptr %9, align 4
  call void @_ZNSt7__cxx1112basic_stringIcSt11char_traitsIcESaIcEED1Ev(ptr noundef nonnull align 8 dereferenceable(32) %6) #3
  br label %72

70:                                               ; preds = %57, %50, %43, %36, %30, %24, %18, %12
  %71 = load i64, ptr %3, align 4
  ret i64 %71

72:                                               ; preds = %66
  %73 = load ptr, ptr %8, align 8
  %74 = load i32, ptr %9, align 4
  %75 = insertvalue { ptr, i32 } poison, ptr %73, 0
  %76 = insertvalue { ptr, i32 } %75, i32 %74, 1
  resume { ptr, i32 } %76
}