; Function Attrs: mustprogress uwtable
define i64 @_ZNK10open_spiel7othello4Move4NextENS0_9DirectionE(ptr noundef nonnull readonly align 4 captures(none) dereferenceable(8) %0, i32 noundef %1) local_unnamed_addr #3 align 2 personality ptr @__gxx_personality_v0 {
  %3 = alloca %"class.std::__cxx11::basic_string", align 8
  %4 = alloca %"class.absl::debian2::AlphaNum", align 8
  switch i32 %1, label %_ZN4absl7debian28AlphaNumC2EPKc.exit [
    i32 0, label %5
    i32 1, label %10
    i32 2, label %15
    i32 3, label %20
    i32 5, label %25
    i32 4, label %31
    i32 7, label %37
    i32 6, label %43
  ]

5:                                                ; preds = %2
  %6 = load i32, ptr %0, align 4
  %7 = add nsw i32 %6, -1
  %8 = getelementptr inbounds nuw i8, ptr %0, i64 4
  %9 = load i32, ptr %8, align 4
  br label %53

10:                                               ; preds = %2
  %11 = load i32, ptr %0, align 4
  %12 = add nsw i32 %11, 1
  %13 = getelementptr inbounds nuw i8, ptr %0, i64 4
  %14 = load i32, ptr %13, align 4
  br label %53

15:                                               ; preds = %2
  %16 = load i32, ptr %0, align 4
  %17 = getelementptr inbounds nuw i8, ptr %0, i64 4
  %18 = load i32, ptr %17, align 4
  %19 = add nsw i32 %18, -1
  br label %53

20:                                               ; preds = %2
  %21 = load i32, ptr %0, align 4
  %22 = getelementptr inbounds nuw i8, ptr %0, i64 4
  %23 = load i32, ptr %22, align 4
  %24 = add nsw i32 %23, 1
  br label %53

25:                                               ; preds = %2
  %26 = load i32, ptr %0, align 4
  %27 = add nsw i32 %26, -1
  %28 = getelementptr inbounds nuw i8, ptr %0, i64 4
  %29 = load i32, ptr %28, align 4
  %30 = add nsw i32 %29, 1
  br label %53

31:                                               ; preds = %2
  %32 = load i32, ptr %0, align 4
  %33 = add nsw i32 %32, -1
  %34 = getelementptr inbounds nuw i8, ptr %0, i64 4
  %35 = load i32, ptr %34, align 4
  %36 = add nsw i32 %35, -1
  br label %53

37:                                               ; preds = %2
  %38 = load i32, ptr %0, align 4
  %39 = add nsw i32 %38, 1
  %40 = getelementptr inbounds nuw i8, ptr %0, i64 4
  %41 = load i32, ptr %40, align 4
  %42 = add nsw i32 %41, 1
  br label %53

43:                                               ; preds = %2
  %44 = load i32, ptr %0, align 4
  %45 = add nsw i32 %44, 1
  %46 = getelementptr inbounds nuw i8, ptr %0, i64 4
  %47 = load i32, ptr %46, align 4
  %48 = add nsw i32 %47, -1
  br label %53

_ZN4absl7debian28AlphaNumC2EPKc.exit:             ; preds = %2
  store ptr @.str.5, ptr %4, align 8
  %49 = getelementptr inbounds nuw i8, ptr %4, i64 8
  store i64 29, ptr %49, align 8
  call void @_ZN4absl7debian26StrCatB5cxx11ERKNS0_8AlphaNumE(ptr dead_on_unwind nonnull writable sret(%"class.std::__cxx11::basic_string") align 8 %3, ptr noundef nonnull align 8 dereferenceable(48) %4)
  invoke void @_ZN10open_spiel15SpielFatalErrorERKNSt7__cxx1112basic_stringIcSt11char_traitsIcESaIcEEE(ptr noundef nonnull align 8 dereferenceable(32) %3) #23
          to label %50 unwind label %51

50:                                               ; preds = %_ZN4absl7debian28AlphaNumC2EPKc.exit
  unreachable

51:                                               ; preds = %_ZN4absl7debian28AlphaNumC2EPKc.exit
  %52 = landingpad { ptr, i32 }
          cleanup
  call void @_ZNSt7__cxx1112basic_stringIcSt11char_traitsIcESaIcEED1Ev(ptr noundef nonnull align 8 dereferenceable(32) %3) #24
  resume { ptr, i32 } %52

53:                                               ; preds = %43, %37, %31, %25, %20, %15, %10, %5
  %.sroa.9.0 = phi i32 [ %48, %43 ], [ %42, %37 ], [ %36, %31 ], [ %30, %25 ], [ %24, %20 ], [ %19, %15 ], [ %14, %10 ], [ %9, %5 ]
  %.sroa.0.0 = phi i32 [ %45, %43 ], [ %39, %37 ], [ %33, %31 ], [ %27, %25 ], [ %21, %20 ], [ %16, %15 ], [ %12, %10 ], [ %7, %5 ]
  %.sroa.9.0.insert.ext = zext i32 %.sroa.9.0 to i64
  %.sroa.9.0.insert.shift = shl nuw i64 %.sroa.9.0.insert.ext, 32
  %.sroa.0.0.insert.ext = zext i32 %.sroa.0.0 to i64
  %.sroa.0.0.insert.insert = or disjoint i64 %.sroa.9.0.insert.shift, %.sroa.0.0.insert.ext
  ret i64 %.sroa.0.0.insert.insert
}